target datalayout = "e-m:e-p270:32:32-p271:32:32-p272:64:64-i64:64-i128:128-f80:128-n8:16:32:64-S128"
target triple = "x86_64-pc-linux-gnu"

%"class.QtPrivate::RefCount" = type { %class.QBasicAtomicInteger }
%class.QBasicAtomicInteger = type { %"struct.std::atomic" }
%"struct.std::atomic" = type { %"struct.std::__atomic_base" }
%"struct.std::__atomic_base" = type { i32 }
%struct.QMapDataBase = type { %"class.QtPrivate::RefCount", i32, %struct.QMapNodeBase, ptr }
%struct.QMapNodeBase = type { i64, ptr, ptr }
%class.QWidget = type { %class.QObject, %class.QPaintDevice, ptr }
%class.QObject = type { ptr, %class.QScopedPointer }
%class.QScopedPointer = type { ptr }
%class.QPaintDevice = type { ptr, i16, ptr }
%class.QString = type { ptr }
%class.MLRenderingParametersTab = type { %class.QTabWidget, i32, %class.QMap.10, %class.QVector }
%class.QTabWidget = type { %class.QWidget }
%class.QMap.10 = type { ptr }
%class.QVector = type { ptr }
%struct.QMapNode.13 = type { %struct.QMapNodeBase, %class.QString, ptr }
%"class.QMap<QString, MLRenderingParametersFrame *>::iterator" = type { ptr }

; Function Attrs: noreturn nounwind uwtable
define linkonce_odr hidden void @__clang_call_terminate(ptr noundef %0) #8 comdat {
  %2 = call ptr @__cxa_begin_catch(ptr %0) #3
  call void @_ZSt9terminatev() #17
  unreachable
}

; Function Attrs: mustprogress nounwind uwtable
define linkonce_odr noundef i32 @_ZStanSt12memory_orderSt23__memory_order_modifier(i32 noundef %0, i32 noundef %1) #4 comdat {
  %3 = alloca i32, align 4
  %4 = alloca i32, align 4
  store i32 %0, ptr %3, align 4
  store i32 %1, ptr %4, align 4
  %5 = load i32, ptr %3, align 4
  %6 = load i32, ptr %4, align 4
  %7 = and i32 %5, %6
  ret i32 %7
}

; Function Attrs: mustprogress nounwind uwtable
define linkonce_odr noundef i32 @_ZN10QAtomicOpsIiE11loadRelaxedIiEET_RKSt6atomicIS2_E(ptr noundef nonnull align 4 dereferenceable(4) %0) #4 comdat align 2 personality ptr @__gxx_personality_v0 {
  %2 = alloca ptr, align 8
  %3 = alloca i32, align 4
  %4 = alloca i32, align 4
  %5 = alloca i32, align 4
  %6 = alloca ptr, align 8
  store ptr %0, ptr %6, align 8
  %7 = load ptr, ptr %6, align 8
  store ptr %7, ptr %2, align 8
  store i32 0, ptr %3, align 4
  %8 = load ptr, ptr %2, align 8
  %9 = load i32, ptr %3, align 4
  %10 = invoke noundef i32 @_ZStanSt12memory_orderSt23__memory_order_modifier(i32 noundef %9, i32 noundef 65535)
          to label %11 unwind label %19

11:                                               ; preds = %1
  store i32 %10, ptr %4, align 4
  %12 = load i32, ptr %3, align 4
  switch i32 %12, label %13 [
    i32 1, label %15
    i32 2, label %15
    i32 5, label %17
  ]

13:                                               ; preds = %11
  %14 = load atomic i32, ptr %8 monotonic, align 4
  store i32 %14, ptr %5, align 4
  br label %22

15:                                               ; preds = %11, %11
  %16 = load atomic i32, ptr %8 acquire, align 4
  store i32 %16, ptr %5, align 4
  br label %22

17:                                               ; preds = %11
  %18 = load atomic i32, ptr %8 seq_cst, align 4
  store i32 %18, ptr %5, align 4
  br label %22

19:                                               ; preds = %1
  %20 = landingpad { ptr, i32 }
          catch ptr null
  %21 = extractvalue { ptr, i32 } %20, 0
  call void @__clang_call_terminate(ptr %21) #17
  unreachable

22:                                               ; preds = %17, %15, %13
  %23 = load i32, ptr %5, align 4
  ret i32 %23
}

; Function Attrs: mustprogress nounwind uwtable
define linkonce_odr noundef ptr @_ZNK8QMapNodeI7QStringP26MLRenderingParametersFrameE9rightNodeEv(ptr noundef nonnull align 8 dereferenceable(40) %0) #4 comdat align 2 {
  %2 = alloca ptr, align 8
  store ptr %0, ptr %2, align 8
  %3 = load ptr, ptr %2, align 8
  %4 = getelementptr inbounds %struct.QMapNodeBase, ptr %3, i32 0, i32 2
  %5 = load ptr, ptr %4, align 8
  ret ptr %5
}

; Function Attrs: mustprogress nounwind uwtable
define linkonce_odr noundef ptr @_ZNK8QMapNodeI7QStringP26MLRenderingParametersFrameE8leftNodeEv(ptr noundef nonnull align 8 dereferenceable(40) %0) #4 comdat align 2 {
  %2 = alloca ptr, align 8
  store ptr %0, ptr %2, align 8
  %3 = load ptr, ptr %2, align 8
  %4 = getelementptr inbounds %struct.QMapNodeBase, ptr %3, i32 0, i32 1
  %5 = load ptr, ptr %4, align 8
  ret ptr %5
}

; Function Attrs: mustprogress nounwind uwtable
define linkonce_odr noundef i32 @_ZNK19QBasicAtomicIntegerIiE11loadRelaxedEv(ptr noundef nonnull align 4 dereferenceable(4) %0) #4 comdat align 2 {
  %2 = alloca ptr, align 8
  store ptr %0, ptr %2, align 8
  %3 = load ptr, ptr %2, align 8
  %4 = getelementptr inbounds %class.QBasicAtomicInteger, ptr %3, i32 0, i32 0
  %5 = call noundef i32 @_ZN10QAtomicOpsIiE11loadRelaxedIiEET_RKSt6atomicIS2_E(ptr noundef nonnull align 4 dereferenceable(4) %4) #3
  ret i32 %5
}

; Function Attrs: mustprogress nounwind uwtable
define linkonce_odr noundef zeroext i1 @_Z15qMapLessThanKeyI7QStringEbRKT_S3_(ptr noundef nonnull align 8 dereferenceable(8) %0, ptr noundef nonnull align 8 dereferenceable(8) %1) #4 comdat {
  %3 = alloca ptr, align 8
  %4 = alloca ptr, align 8
  store ptr %0, ptr %3, align 8
  store ptr %1, ptr %4, align 8
  %5 = load ptr, ptr %3, align 8
  %6 = load ptr, ptr %4, align 8
  %7 = call noundef zeroext i1 @_ZltRK7QStringS1_(ptr noundef nonnull align 8 dereferenceable(8) %5, ptr noundef nonnull align 8 dereferenceable(8) %6) #3
  ret i1 %7
}

; Function Attrs: mustprogress uwtable
define linkonce_odr noundef ptr @_ZN8QMapNodeI7QStringP26MLRenderingParametersFrameE10lowerBoundERKS0_(ptr noundef nonnull align 8 dereferenceable(40) %0, ptr noundef nonnull align 8 dereferenceable(8) %1) #5 comdat align 2 {
  %3 = alloca ptr, align 8
  %4 = alloca ptr, align 8
  %5 = alloca ptr, align 8
  %6 = alloca ptr, align 8
  store ptr %0, ptr %3, align 8
  store ptr %1, ptr %4, align 8
  %7 = load ptr, ptr %3, align 8
  store ptr %7, ptr %5, align 8
  store ptr null, ptr %6, align 8
  br label %8

8:                                                ; preds = %23, %2
  %9 = load ptr, ptr %5, align 8
  %10 = icmp ne ptr %9, null
  br i1 %10, label %11, label %24

11:                                               ; preds = %8
  %12 = load ptr, ptr %5, align 8
  %13 = getelementptr inbounds %struct.QMapNode.13, ptr %12, i32 0, i32 1
  %14 = load ptr, ptr %4, align 8
  %15 = call noundef zeroext i1 @_Z15qMapLessThanKeyI7QStringEbRKT_S3_(ptr noundef nonnull align 8 dereferenceable(8) %13, ptr noundef nonnull align 8 dereferenceable(8) %14)
  br i1 %15, label %20, label %16

16:                                               ; preds = %11
  %17 = load ptr, ptr %5, align 8
  store ptr %17, ptr %6, align 8
  %18 = load ptr, ptr %5, align 8
  %19 = call noundef ptr @_ZNK8QMapNodeI7QStringP26MLRenderingParametersFrameE8leftNodeEv(ptr noundef nonnull align 8 dereferenceable(40) %18)
  store ptr %19, ptr %5, align 8
  br label %23

20:                                               ; preds = %11
  %21 = load ptr, ptr %5, align 8
  %22 = call noundef ptr @_ZNK8QMapNodeI7QStringP26MLRenderingParametersFrameE9rightNodeEv(ptr noundef nonnull align 8 dereferenceable(40) %21)
  store ptr %22, ptr %5, align 8
  br label %23

23:                                               ; preds = %20, %16
  br label %8, !llvm.loop !27

24:                                               ; preds = %8
  %25 = load ptr, ptr %6, align 8
  ret ptr %25
}

; Function Attrs: mustprogress nounwind uwtable
define linkonce_odr noundef ptr @_ZNK8QMapDataI7QStringP26MLRenderingParametersFrameE4rootEv(ptr noundef nonnull align 8 dereferenceable(40) %0) #4 comdat align 2 {
  %2 = alloca ptr, align 8
  store ptr %0, ptr %2, align 8
  %3 = load ptr, ptr %2, align 8
  %4 = getelementptr inbounds %struct.QMapDataBase, ptr %3, i32 0, i32 2
  %5 = getelementptr inbounds %struct.QMapNodeBase, ptr %4, i32 0, i32 1
  %6 = load ptr, ptr %5, align 8
  ret ptr %6
}

; Function Attrs: mustprogress nounwind uwtable
define linkonce_odr noundef zeroext i1 @_ZNK9QtPrivate8RefCount8isSharedEv(ptr noundef nonnull align 4 dereferenceable(4) %0) #4 comdat align 2 {
  %2 = alloca ptr, align 8
  %3 = alloca i32, align 4
  store ptr %0, ptr %2, align 8
  %4 = load ptr, ptr %2, align 8
  %5 = getelementptr inbounds %"class.QtPrivate::RefCount", ptr %4, i32 0, i32 0
  %6 = call noundef i32 @_ZNK19QBasicAtomicIntegerIiE11loadRelaxedEv(ptr noundef nonnull align 4 dereferenceable(4) %5) #3
  store i32 %6, ptr %3, align 4
  %7 = load i32, ptr %3, align 4
  %8 = icmp ne i32 %7, 1
  br i1 %8, label %9, label %12

9:                                                ; preds = %1
  %10 = load i32, ptr %3, align 4
  %11 = icmp ne i32 %10, 0
  br label %12

12:                                               ; preds = %9, %1
  %13 = phi i1 [ false, %1 ], [ %11, %9 ]
  ret i1 %13
}

; Function Attrs: mustprogress nounwind uwtable
define linkonce_odr void @_ZN4QMapI7QStringP26MLRenderingParametersFrameE8iteratorC2EP8QMapNodeIS0_S2_E(ptr noundef nonnull align 8 dereferenceable(8) %0, ptr noundef %1) unnamed_addr #4 comdat align 2 {
  %3 = alloca ptr, align 8
  %4 = alloca ptr, align 8
  store ptr %0, ptr %3, align 8
  store ptr %1, ptr %4, align 8
  %5 = load ptr, ptr %3, align 8
  %6 = getelementptr inbounds %"class.QMap<QString, MLRenderingParametersFrame *>::iterator", ptr %5, i32 0, i32 0
  %7 = load ptr, ptr %4, align 8
  store ptr %7, ptr %6, align 8
  ret void
}

; Function Attrs: mustprogress nounwind uwtable
define linkonce_odr noundef ptr @_ZN8QMapDataI7QStringP26MLRenderingParametersFrameE3endEv(ptr noundef nonnull align 8 dereferenceable(40) %0) #4 comdat align 2 {
  %2 = alloca ptr, align 8
  store ptr %0, ptr %2, align 8
  %3 = load ptr, ptr %2, align 8
  %4 = getelementptr inbounds %struct.QMapDataBase, ptr %3, i32 0, i32 2
  ret ptr %4
}

; Function Attrs: mustprogress uwtable
define linkonce_odr noundef ptr @_ZNK8QMapDataI7QStringP26MLRenderingParametersFrameE8findNodeERKS0_(ptr noundef nonnull align 8 dereferenceable(40) %0, ptr noundef nonnull align 8 dereferenceable(8) %1) #5 comdat align 2 {
  %3 = alloca ptr, align 8
  %4 = alloca ptr, align 8
  %5 = alloca ptr, align 8
  %6 = alloca ptr, align 8
  %7 = alloca ptr, align 8
  store ptr %0, ptr %4, align 8
  store ptr %1, ptr %5, align 8
  %8 = load ptr, ptr %4, align 8
  %9 = call noundef ptr @_ZNK8QMapDataI7QStringP26MLRenderingParametersFrameE4rootEv(ptr noundef nonnull align 8 dereferenceable(40) %8)
  store ptr %9, ptr %6, align 8
  %10 = load ptr, ptr %6, align 8
  %11 = icmp ne ptr %10, null
  br i1 %11, label %12, label %26

12:                                               ; preds = %2
  %13 = load ptr, ptr %6, align 8
  %14 = load ptr, ptr %5, align 8
  %15 = call noundef ptr @_ZN8QMapNodeI7QStringP26MLRenderingParametersFrameE10lowerBoundERKS0_(ptr noundef nonnull align 8 dereferenceable(40) %13, ptr noundef nonnull align 8 dereferenceable(8) %14)
  store ptr %15, ptr %7, align 8
  %16 = load ptr, ptr %7, align 8
  %17 = icmp ne ptr %16, null
  br i1 %17, label %18, label %25

18:                                               ; preds = %12
  %19 = load ptr, ptr %5, align 8
  %20 = load ptr, ptr %7, align 8
  %21 = getelementptr inbounds %struct.QMapNode.13, ptr %20, i32 0, i32 1
  %22 = call noundef zeroext i1 @_Z15qMapLessThanKeyI7QStringEbRKT_S3_(ptr noundef nonnull align 8 dereferenceable(8) %19, ptr noundef nonnull align 8 dereferenceable(8) %21)
  br i1 %22, label %25, label %23

23:                                               ; preds = %18
  %24 = load ptr, ptr %7, align 8
  store ptr %24, ptr %3, align 8
  br label %27

25:                                               ; preds = %18, %12
  br label %26

26:                                               ; preds = %25, %2
  store ptr null, ptr %3, align 8
  br label %27

27:                                               ; preds = %26, %23
  %28 = load ptr, ptr %3, align 8
  ret ptr %28
}

; Function Attrs: mustprogress uwtable
define linkonce_odr void @_ZN4QMapI7QStringP26MLRenderingParametersFrameE6detachEv(ptr noundef nonnull align 8 dereferenceable(8) %0) #5 comdat align 2 {
  %2 = alloca ptr, align 8
  store ptr %0, ptr %2, align 8
  %3 = load ptr, ptr %2, align 8
  %4 = getelementptr inbounds %class.QMap.10, ptr %3, i32 0, i32 0
  %5 = load ptr, ptr %4, align 8
  %6 = getelementptr inbounds %struct.QMapDataBase, ptr %5, i32 0, i32 0
  %7 = call noundef zeroext i1 @_ZNK9QtPrivate8RefCount8isSharedEv(ptr noundef nonnull align 4 dereferenceable(4) %6) #3
  br i1 %7, label %8, label %9

8:                                                ; preds = %1
  call void @_ZN4QMapI7QStringP26MLRenderingParametersFrameE13detach_helperEv(ptr noundef nonnull align 8 dereferenceable(8) %3)
  br label %9

9:                                                ; preds = %8, %1
  ret void
}

; Function Attrs: mustprogress nounwind uwtable
define linkonce_odr noundef nonnull align 8 dereferenceable(8) ptr @_ZNK4QMapI7QStringP26MLRenderingParametersFrameE8iteratordeEv(ptr noundef nonnull align 8 dereferenceable(8) %0) #4 comdat align 2 {
  %2 = alloca ptr, align 8
  store ptr %0, ptr %2, align 8
  %3 = load ptr, ptr %2, align 8
  %4 = getelementptr inbounds %"class.QMap<QString, MLRenderingParametersFrame *>::iterator", ptr %3, i32 0, i32 0
  %5 = load ptr, ptr %4, align 8
  %6 = getelementptr inbounds %struct.QMapNode.13, ptr %5, i32 0, i32 2
  ret ptr %6
}

; Function Attrs: mustprogress nounwind uwtable
define linkonce_odr noundef zeroext i1 @_ZNK4QMapI7QStringP26MLRenderingParametersFrameE8iteratorneERKS4_(ptr noundef nonnull align 8 dereferenceable(8) %0, ptr noundef nonnull align 8 dereferenceable(8) %1) #4 comdat align 2 {
  %3 = alloca ptr, align 8
  %4 = alloca ptr, align 8
  store ptr %0, ptr %3, align 8
  store ptr %1, ptr %4, align 8
  %5 = load ptr, ptr %3, align 8
  %6 = getelementptr inbounds %"class.QMap<QString, MLRenderingParametersFrame *>::iterator", ptr %5, i32 0, i32 0
  %7 = load ptr, ptr %6, align 8
  %8 = load ptr, ptr %4, align 8
  %9 = getelementptr inbounds %"class.QMap<QString, MLRenderingParametersFrame *>::iterator", ptr %8, i32 0, i32 0
  %10 = load ptr, ptr %9, align 8
  %11 = icmp ne ptr %7, %10
  ret i1 %11
}

; Function Attrs: mustprogress uwtable
define linkonce_odr ptr @_ZN4QMapI7QStringP26MLRenderingParametersFrameE3endEv(ptr noundef nonnull align 8 dereferenceable(8) %0) #5 comdat align 2 {
  %2 = alloca %"class.QMap<QString, MLRenderingParametersFrame *>::iterator", align 8
  %3 = alloca ptr, align 8
  store ptr %0, ptr %3, align 8
  %4 = load ptr, ptr %3, align 8
  call void @_ZN4QMapI7QStringP26MLRenderingParametersFrameE6detachEv(ptr noundef nonnull align 8 dereferenceable(8) %4)
  %5 = getelementptr inbounds %class.QMap.10, ptr %4, i32 0, i32 0
  %6 = load ptr, ptr %5, align 8
  %7 = call noundef ptr @_ZN8QMapDataI7QStringP26MLRenderingParametersFrameE3endEv(ptr noundef nonnull align 8 dereferenceable(40) %6)
  call void @_ZN4QMapI7QStringP26MLRenderingParametersFrameE8iteratorC2EP8QMapNodeIS0_S2_E(ptr noundef nonnull align 8 dereferenceable(8) %2, ptr noundef %7)
  %8 = getelementptr inbounds %"class.QMap<QString, MLRenderingParametersFrame *>::iterator", ptr %2, i32 0, i32 0
  %9 = load ptr, ptr %8, align 8
  ret ptr %9
}

; Function Attrs: mustprogress uwtable
define linkonce_odr ptr @_ZN4QMapI7QStringP26MLRenderingParametersFrameE4findERKS0_(ptr noundef nonnull align 8 dereferenceable(8) %0, ptr noundef nonnull align 8 dereferenceable(8) %1) #5 comdat align 2 {
  %3 = alloca %"class.QMap<QString, MLRenderingParametersFrame *>::iterator", align 8
  %4 = alloca ptr, align 8
  %5 = alloca ptr, align 8
  %6 = alloca ptr, align 8
  store ptr %0, ptr %4, align 8
  store ptr %1, ptr %5, align 8
  %7 = load ptr, ptr %4, align 8
  call void @_ZN4QMapI7QStringP26MLRenderingParametersFrameE6detachEv(ptr noundef nonnull align 8 dereferenceable(8) %7)
  %8 = getelementptr inbounds %class.QMap.10, ptr %7, i32 0, i32 0
  %9 = load ptr, ptr %8, align 8
  %10 = load ptr, ptr %5, align 8
  %11 = call noundef ptr @_ZNK8QMapDataI7QStringP26MLRenderingParametersFrameE8findNodeERKS0_(ptr noundef nonnull align 8 dereferenceable(40) %9, ptr noundef nonnull align 8 dereferenceable(8) %10)
  store ptr %11, ptr %6, align 8
  %12 = load ptr, ptr %6, align 8
  %13 = icmp ne ptr %12, null
  br i1 %13, label %14, label %16

14:                                               ; preds = %2
  %15 = load ptr, ptr %6, align 8
  br label %20

16:                                               ; preds = %2
  %17 = getelementptr inbounds %class.QMap.10, ptr %7, i32 0, i32 0
  %18 = load ptr, ptr %17, align 8
  %19 = call noundef ptr @_ZN8QMapDataI7QStringP26MLRenderingParametersFrameE3endEv(ptr noundef nonnull align 8 dereferenceable(40) %18)
  br label %20

20:                                               ; preds = %16, %14
  %21 = phi ptr [ %15, %14 ], [ %19, %16 ]
  call void @_ZN4QMapI7QStringP26MLRenderingParametersFrameE8iteratorC2EP8QMapNodeIS0_S2_E(ptr noundef nonnull align 8 dereferenceable(8) %3, ptr noundef %21)
  %22 = getelementptr inbounds %"class.QMap<QString, MLRenderingParametersFrame *>::iterator", ptr %3, i32 0, i32 0
  %23 = load ptr, ptr %22, align 8
  ret ptr %23
}

; Function Attrs: mustprogress uwtable
define void @_ZN24MLRenderingParametersTab9switchTabEiRK7QString(ptr noundef nonnull align 8 dereferenceable(72) %0, i32 noundef %1, ptr noundef nonnull align 8 dereferenceable(8) %2) #5 align 2 {
  %4 = alloca ptr, align 8
  %5 = alloca i32, align 4
  %6 = alloca ptr, align 8
  %7 = alloca %"class.QMap<QString, MLRenderingParametersFrame *>::iterator", align 8
  %8 = alloca %"class.QMap<QString, MLRenderingParametersFrame *>::iterator", align 8
  store ptr %0, ptr %4, align 8
  store i32 %1, ptr %5, align 4
  store ptr %2, ptr %6, align 8
  %9 = load ptr, ptr %4, align 8
  %10 = getelementptr inbounds %class.MLRenderingParametersTab, ptr %9, i32 0, i32 2
  %11 = load ptr, ptr %6, align 8
  %12 = call ptr @_ZN4QMapI7QStringP26MLRenderingParametersFrameE4findERKS0_(ptr noundef nonnull align 8 dereferenceable(8) %10, ptr noundef nonnull align 8 dereferenceable(8) %11)
  %13 = getelementptr inbounds %"class.QMap<QString, MLRenderingParametersFrame *>::iterator", ptr %7, i32 0, i32 0
  store ptr %12, ptr %13, align 8
  %14 = getelementptr inbounds %class.MLRenderingParametersTab, ptr %9, i32 0, i32 2
  %15 = call ptr @_ZN4QMapI7QStringP26MLRenderingParametersFrameE3endEv(ptr noundef nonnull align 8 dereferenceable(8) %14)
  %16 = getelementptr inbounds %"class.QMap<QString, MLRenderingParametersFrame *>::iterator", ptr %8, i32 0, i32 0
  store ptr %15, ptr %16, align 8
  %17 = call noundef zeroext i1 @_ZNK4QMapI7QStringP26MLRenderingParametersFrameE8iteratorneERKS4_(ptr noundef nonnull align 8 dereferenceable(8) %7, ptr noundef nonnull align 8 dereferenceable(8) %8)
  br i1 %17, label %18, label %21

18:                                               ; preds = %3
  %19 = call noundef nonnull align 8 dereferenceable(8) ptr @_ZNK4QMapI7QStringP26MLRenderingParametersFrameE8iteratordeEv(ptr noundef nonnull align 8 dereferenceable(8) %7)
  %20 = load ptr, ptr %19, align 8
  call void @_ZN10QTabWidget16setCurrentWidgetEP7QWidget(ptr noundef nonnull align 8 dereferenceable(48) %9, ptr noundef %20)
  br label %21

21:                                               ; preds = %18, %3
  ret void
}