; Function Attrs: mustprogress uwtable
define void @_ZN24MLRenderingParametersTab9switchTabEiRK7QString(ptr noundef nonnull align 8 dereferenceable(72) %0, i32 noundef %1, ptr noundef nonnull align 8 dereferenceable(8) %2) local_unnamed_addr #3 align 2 personality ptr @__gxx_personality_v0 {
  %4 = getelementptr inbounds i8, ptr %0, i64 56
  %5 = load ptr, ptr %4, align 8
  %6 = load atomic i32, ptr %5 monotonic, align 4
  %7 = icmp ugt i32 %6, 1
  br i1 %7, label %8, label %_ZN4QMapI7QStringP26MLRenderingParametersFrameE6detachEv.exit.i

8:                                                ; preds = %3
  tail call void @_ZN4QMapI7QStringP26MLRenderingParametersFrameE13detach_helperEv(ptr noundef nonnull align 8 dereferenceable(8) %4)
  %.pre.i = load ptr, ptr %4, align 8
  br label %_ZN4QMapI7QStringP26MLRenderingParametersFrameE6detachEv.exit.i

_ZN4QMapI7QStringP26MLRenderingParametersFrameE6detachEv.exit.i: ; preds = %8, %3
  %9 = phi ptr [ %5, %3 ], [ %.pre.i, %8 ]
  %10 = getelementptr inbounds i8, ptr %9, i64 16
  %11 = load ptr, ptr %10, align 8
  %.not.i.i = icmp eq ptr %11, null
  br i1 %.not.i.i, label %17, label %.preheader.i.i

.preheader.i.i:                                   ; preds = %_ZN4QMapI7QStringP26MLRenderingParametersFrameE6detachEv.exit.i, %.preheader.i.i
  %.011.i.i.i = phi ptr [ %.1.i.i.i, %.preheader.i.i ], [ null, %_ZN4QMapI7QStringP26MLRenderingParametersFrameE6detachEv.exit.i ]
  %.0810.i.i.i = phi ptr [ %.19.i.i.i, %.preheader.i.i ], [ %11, %_ZN4QMapI7QStringP26MLRenderingParametersFrameE6detachEv.exit.i ]
  %12 = getelementptr inbounds i8, ptr %.0810.i.i.i, i64 24
  %13 = tail call noundef zeroext i1 @_ZltRK7QStringS1_(ptr noundef nonnull align 8 dereferenceable(8) %12, ptr noundef nonnull align 8 dereferenceable(8) %2) #23
  %.19.in.v.i.i.i = select i1 %13, i64 16, i64 8
  %.19.in.i.i.i = getelementptr inbounds i8, ptr %.0810.i.i.i, i64 %.19.in.v.i.i.i
  %.1.i.i.i = select i1 %13, ptr %.011.i.i.i, ptr %.0810.i.i.i
  %.19.i.i.i = load ptr, ptr %.19.in.i.i.i, align 8
  %.not.i.i.i = icmp eq ptr %.19.i.i.i, null
  br i1 %.not.i.i.i, label %_ZN8QMapNodeI7QStringP26MLRenderingParametersFrameE10lowerBoundERKS0_.exit.i.i, label %.preheader.i.i, !llvm.loop !93

_ZN8QMapNodeI7QStringP26MLRenderingParametersFrameE10lowerBoundERKS0_.exit.i.i: ; preds = %.preheader.i.i
  %.not11.i.i = icmp eq ptr %.1.i.i.i, null
  br i1 %.not11.i.i, label %_ZN8QMapNodeI7QStringP26MLRenderingParametersFrameE10lowerBoundERKS0_.exit.i.i._crit_edge, label %14

_ZN8QMapNodeI7QStringP26MLRenderingParametersFrameE10lowerBoundERKS0_.exit.i.i._crit_edge: ; preds = %_ZN8QMapNodeI7QStringP26MLRenderingParametersFrameE10lowerBoundERKS0_.exit.i.i
  %.pre6 = load ptr, ptr %4, align 8
  br label %17

14:                                               ; preds = %_ZN8QMapNodeI7QStringP26MLRenderingParametersFrameE10lowerBoundERKS0_.exit.i.i
  %15 = getelementptr inbounds i8, ptr %.1.i.i.i, i64 24
  %16 = tail call noundef zeroext i1 @_ZltRK7QStringS1_(ptr noundef nonnull align 8 dereferenceable(8) %2, ptr noundef nonnull align 8 dereferenceable(8) %15) #23
  %.pre7 = load ptr, ptr %4, align 8
  br i1 %16, label %17, label %_ZN4QMapI7QStringP26MLRenderingParametersFrameE4findERKS0_.exit

17:                                               ; preds = %_ZN8QMapNodeI7QStringP26MLRenderingParametersFrameE10lowerBoundERKS0_.exit.i.i._crit_edge, %14, %_ZN4QMapI7QStringP26MLRenderingParametersFrameE6detachEv.exit.i
  %18 = phi ptr [ %.pre6, %_ZN8QMapNodeI7QStringP26MLRenderingParametersFrameE10lowerBoundERKS0_.exit.i.i._crit_edge ], [ %.pre7, %14 ], [ %9, %_ZN4QMapI7QStringP26MLRenderingParametersFrameE6detachEv.exit.i ]
  %19 = getelementptr inbounds i8, ptr %18, i64 8
  br label %_ZN4QMapI7QStringP26MLRenderingParametersFrameE4findERKS0_.exit

_ZN4QMapI7QStringP26MLRenderingParametersFrameE4findERKS0_.exit: ; preds = %14, %17
  %20 = phi ptr [ %18, %17 ], [ %.pre7, %14 ]
  %21 = phi ptr [ %19, %17 ], [ %.1.i.i.i, %14 ]
  %22 = load atomic i32, ptr %20 monotonic, align 4
  %23 = icmp ugt i32 %22, 1
  br i1 %23, label %24, label %_ZN4QMapI7QStringP26MLRenderingParametersFrameE3endEv.exit

24:                                               ; preds = %_ZN4QMapI7QStringP26MLRenderingParametersFrameE4findERKS0_.exit
  tail call void @_ZN4QMapI7QStringP26MLRenderingParametersFrameE13detach_helperEv(ptr noundef nonnull align 8 dereferenceable(8) %4)
  %.pre.i3 = load ptr, ptr %4, align 8
  br label %_ZN4QMapI7QStringP26MLRenderingParametersFrameE3endEv.exit

_ZN4QMapI7QStringP26MLRenderingParametersFrameE3endEv.exit: ; preds = %_ZN4QMapI7QStringP26MLRenderingParametersFrameE4findERKS0_.exit, %24
  %25 = phi ptr [ %20, %_ZN4QMapI7QStringP26MLRenderingParametersFrameE4findERKS0_.exit ], [ %.pre.i3, %24 ]
  %26 = getelementptr inbounds i8, ptr %25, i64 8
  %.not = icmp eq ptr %21, %26
  br i1 %.not, label %30, label %27

27:                                               ; preds = %_ZN4QMapI7QStringP26MLRenderingParametersFrameE3endEv.exit
  %28 = getelementptr inbounds i8, ptr %21, i64 32
  %29 = load ptr, ptr %28, align 8
  tail call void @_ZN10QTabWidget16setCurrentWidgetEP7QWidget(ptr noundef nonnull align 8 dereferenceable(48) %0, ptr noundef %29)
  br label %30

30:                                               ; preds = %27, %_ZN4QMapI7QStringP26MLRenderingParametersFrameE3endEv.exit
  ret void
}